target datalayout = "e-m:e-p270:32:32-p271:32:32-p272:64:64-i64:64-i128:128-f80:128-n8:16:32:64-S128"
target triple = "x86_64-pc-linux-gnu"

%struct.DdManager = type { %struct.DdNode, ptr, ptr, ptr, ptr, ptr, ptr, ptr, i32, i32, double, double, double, i32, i32, i32, i32, i32, i32, ptr, ptr, %struct.DdSubtable, i32, i32, i32, i32, i32, i32, i32, double, i32, i32, i32, ptr, i64, double, i32, ptr, ptr, ptr, ptr, ptr, ptr, ptr, i32, ptr, ptr, ptr, ptr, ptr, ptr, i32, i32, i32, double, i32, i32, i32, i32, double, double, i32, i32, i32, i32, i32, i32, i32, i32, i32, ptr, ptr, i32, i32, i32, i32, i32, i32, ptr, ptr, ptr, ptr, ptr, ptr, ptr, ptr, i32, i64, i64, i64, i32, i64, i64, double, double, double, double, double, double, i32, ptr, ptr, i64 }
%struct.DdNode = type { i32, i32, ptr, %union.anon, i64 }
%union.anon = type { %struct.DdChildren }
%struct.DdChildren = type { ptr, ptr }
%struct.DdSubtable = type { ptr, i32, i32, i32, i32, i32, i32, i32, i32, i32, i32, i32 }

@.str.3 = private unnamed_addr constant [2 x i8] c"\0A\00", align 1
@.str.11 = private unnamed_addr constant [8 x i8] c" %3d : \00", align 1
@.str.12 = private unnamed_addr constant [2 x i8] c"c\00", align 1
@.str.13 = private unnamed_addr constant [2 x i8] c"n\00", align 1
@.str.14 = private unnamed_addr constant [2 x i8] c"i\00", align 1
@.str.15 = private unnamed_addr constant [2 x i8] c".\00", align 1

; Function Attrs: nounwind uwtable
define internal void @Extra_bddImagePrintLatchDependencyOne(ptr noundef %0, ptr noundef %1, ptr noundef %2, ptr noundef %3, i32 noundef %4) #0 {
  %6 = alloca ptr, align 8
  %7 = alloca ptr, align 8
  %8 = alloca ptr, align 8
  %9 = alloca ptr, align 8
  %10 = alloca i32, align 4
  %11 = alloca ptr, align 8
  %12 = alloca i32, align 4
  store ptr %0, ptr %6, align 8, !tbaa !3
  store ptr %1, ptr %7, align 8, !tbaa !8
  store ptr %2, ptr %8, align 8, !tbaa !8
  store ptr %3, ptr %9, align 8, !tbaa !8
  store i32 %4, ptr %10, align 4, !tbaa !10
  call void @llvm.lifetime.start.p0(i64 8, ptr %11) #6
  call void @llvm.lifetime.start.p0(i64 4, ptr %12) #6
  %13 = load ptr, ptr %6, align 8, !tbaa !3
  %14 = load ptr, ptr %7, align 8, !tbaa !8
  %15 = call ptr @Cudd_Support(ptr noundef %13, ptr noundef %14)
  store ptr %15, ptr %11, align 8, !tbaa !8
  %16 = load ptr, ptr %11, align 8, !tbaa !8
  call void @Cudd_Ref(ptr noundef %16)
  %17 = load i32, ptr %10, align 4, !tbaa !10
  %18 = call i32 (ptr, ...) @printf(ptr noundef @.str.11, i32 noundef %17)
  store i32 0, ptr %12, align 4, !tbaa !10
  br label %19

19:                                               ; preds = %72, %5
  %20 = load i32, ptr %12, align 4, !tbaa !10
  %21 = load ptr, ptr %6, align 8, !tbaa !3
  %22 = getelementptr inbounds nuw %struct.DdManager, ptr %21, i32 0, i32 15
  %23 = load i32, ptr %22, align 8, !tbaa !14
  %24 = icmp slt i32 %20, %23
  br i1 %24, label %25, label %75

25:                                               ; preds = %19
  %26 = load ptr, ptr %6, align 8, !tbaa !3
  %27 = load ptr, ptr %11, align 8, !tbaa !8
  %28 = load ptr, ptr %6, align 8, !tbaa !3
  %29 = getelementptr inbounds nuw %struct.DdManager, ptr %28, i32 0, i32 41
  %30 = load ptr, ptr %29, align 8, !tbaa !68
  %31 = load i32, ptr %12, align 4, !tbaa !10
  %32 = sext i32 %31 to i64
  %33 = getelementptr inbounds ptr, ptr %30, i64 %32
  %34 = load ptr, ptr %33, align 8, !tbaa !8
  %35 = call i32 @Cudd_bddLeq(ptr noundef %26, ptr noundef %27, ptr noundef %34)
  %36 = icmp ne i32 %35, 0
  br i1 %36, label %37, label %69

37:                                               ; preds = %25
  %38 = load ptr, ptr %6, align 8, !tbaa !3
  %39 = load ptr, ptr %8, align 8, !tbaa !8
  %40 = load ptr, ptr %6, align 8, !tbaa !3
  %41 = getelementptr inbounds nuw %struct.DdManager, ptr %40, i32 0, i32 41
  %42 = load ptr, ptr %41, align 8, !tbaa !68
  %43 = load i32, ptr %12, align 4, !tbaa !10
  %44 = sext i32 %43 to i64
  %45 = getelementptr inbounds ptr, ptr %42, i64 %44
  %46 = load ptr, ptr %45, align 8, !tbaa !8
  %47 = call i32 @Cudd_bddLeq(ptr noundef %38, ptr noundef %39, ptr noundef %46)
  %48 = icmp ne i32 %47, 0
  br i1 %48, label %49, label %51

49:                                               ; preds = %37
  %50 = call i32 (ptr, ...) @printf(ptr noundef @.str.12)
  br label %68

51:                                               ; preds = %37
  %52 = load ptr, ptr %6, align 8, !tbaa !3
  %53 = load ptr, ptr %9, align 8, !tbaa !8
  %54 = load ptr, ptr %6, align 8, !tbaa !3
  %55 = getelementptr inbounds nuw %struct.DdManager, ptr %54, i32 0, i32 41
  %56 = load ptr, ptr %55, align 8, !tbaa !68
  %57 = load i32, ptr %12, align 4, !tbaa !10
  %58 = sext i32 %57 to i64
  %59 = getelementptr inbounds ptr, ptr %56, i64 %58
  %60 = load ptr, ptr %59, align 8, !tbaa !8
  %61 = call i32 @Cudd_bddLeq(ptr noundef %52, ptr noundef %53, ptr noundef %60)
  %62 = icmp ne i32 %61, 0
  br i1 %62, label %63, label %65

63:                                               ; preds = %51
  %64 = call i32 (ptr, ...) @printf(ptr noundef @.str.13)
  br label %67

65:                                               ; preds = %51
  %66 = call i32 (ptr, ...) @printf(ptr noundef @.str.14)
  br label %67

67:                                               ; preds = %65, %63
  br label %68

68:                                               ; preds = %67, %49
  br label %71

69:                                               ; preds = %25
  %70 = call i32 (ptr, ...) @printf(ptr noundef @.str.15)
  br label %71

71:                                               ; preds = %69, %68
  br label %72

72:                                               ; preds = %71
  %73 = load i32, ptr %12, align 4, !tbaa !10
  %74 = add nsw i32 %73, 1
  store i32 %74, ptr %12, align 4, !tbaa !10
  br label %19, !llvm.loop !104

75:                                               ; preds = %19
  %76 = call i32 (ptr, ...) @printf(ptr noundef @.str.3)
  %77 = load ptr, ptr %6, align 8, !tbaa !3
  %78 = load ptr, ptr %11, align 8, !tbaa !8
  call void @Cudd_RecursiveDeref(ptr noundef %77, ptr noundef %78)
  call void @llvm.lifetime.end.p0(i64 4, ptr %12) #6
  call void @llvm.lifetime.end.p0(i64 8, ptr %11) #6
  ret void
}